(dp1
S'failed'
p2
(lp3
S'2'
aS'8'
asS'source_names'
p4
(lp5
S'.'
asS'ids'
p6
(dp7
I1
(S'/home/jonnyhuck/.qgis2/python/plugins/PolygonDivider/test/test_init.py'
S'PolygonDivider.test.test_init'
S'TestInit.test_read_init'
tp8
sI2
(S'/home/jonnyhuck/.qgis2/python/plugins/PolygonDivider/test/test_polygon_divider_dialog.py'
S'PolygonDivider.test.test_polygon_divider_dialog'
Ntp9
sI3
(S'/home/jonnyhuck/.qgis2/python/plugins/PolygonDivider/test/test_polygondivider_dialog.py'
S'PolygonDivider.test.test_polygondivider_dialog'
p10
S'PolygonDividerDialogTest.test_dialog_cancel'
tp11
sI4
(S'/home/jonnyhuck/.qgis2/python/plugins/PolygonDivider/test/test_polygondivider_dialog.py'
g10
S'PolygonDividerDialogTest.test_dialog_ok'
tp12
sI5
(S'/home/jonnyhuck/.qgis2/python/plugins/PolygonDivider/test/test_qgis_environment.py'
S'PolygonDivider.test.test_qgis_environment'
p13
S'QGISTest.test_projection'
tp14
sI6
(S'/home/jonnyhuck/.qgis2/python/plugins/PolygonDivider/test/test_qgis_environment.py'
g13
S'QGISTest.test_qgis_environment'
tp15
sI7
(S'/home/jonnyhuck/.qgis2/python/plugins/PolygonDivider/test/test_resources.py'
S'PolygonDivider.test.test_resources'
S'PolygonDividerDialogTest.test_icon_png'
tp16
sI8
(S'/home/jonnyhuck/.qgis2/python/plugins/PolygonDivider/test/test_translations.py'
S'PolygonDivider.test.test_translations'
S'SafeTranslationsTest.test_qgis_translations'
tp17
ss.