(dp1
S'failed'
p2
(lp3
S'2'
aS'8'
asS'source_names'
p4
(lp5
S'.'
asS'ids'
p6
(dp7
I1
(S'/home/jonnyhuck/.qgis2/python/plugins/PolygonDivider/test/test_init.py'
S'PolygonDivider.test.test_init'
p8
S'TestInit.test_read_init'
tp9
sI2
(S'/home/jonnyhuck/.qgis2/python/plugins/PolygonDivider/test/test_polygon_divider_dialog.py'
p10
S'PolygonDivider.test.test_polygon_divider_dialog'
p11
Ntp12
sI3
(S'/home/jonnyhuck/.qgis2/python/plugins/PolygonDivider/test/test_polygondivider_dialog.py'
S'PolygonDivider.test.test_polygondivider_dialog'
p13
S'PolygonDividerDialogTest.test_dialog_cancel'
tp14
sI4
(S'/home/jonnyhuck/.qgis2/python/plugins/PolygonDivider/test/test_polygondivider_dialog.py'
g13
S'PolygonDividerDialogTest.test_dialog_ok'
tp15
sI5
(S'/home/jonnyhuck/.qgis2/python/plugins/PolygonDivider/test/test_qgis_environment.py'
S'PolygonDivider.test.test_qgis_environment'
p16
S'QGISTest.test_projection'
tp17
sI6
(S'/home/jonnyhuck/.qgis2/python/plugins/PolygonDivider/test/test_qgis_environment.py'
g16
S'QGISTest.test_qgis_environment'
tp18
sI7
(S'/home/jonnyhuck/.qgis2/python/plugins/PolygonDivider/test/test_resources.py'
S'PolygonDivider.test.test_resources'
p19
S'PolygonDividerDialogTest.test_icon_png'
tp20
sI8
(S'/home/jonnyhuck/.qgis2/python/plugins/PolygonDivider/test/test_translations.py'
S'PolygonDivider.test.test_translations'
p21
S'SafeTranslationsTest.test_qgis_translations'
tp22
ss.